target datalayout = "e-m:e-p270:32:32-p271:32:32-p272:64:64-i64:64-i128:128-f80:128-n8:16:32:64-S128"
target triple = "x86_64-pc-linux-gnu"

%class.QString = type { %struct.QArrayDataPointer.0 }
%struct.QArrayDataPointer.0 = type { ptr, ptr, i64 }
%class.QDateTime = type { %"union.QDateTime::Data" }
%"union.QDateTime::Data" = type { ptr }

; Function Attrs: mustprogress null_pointer_is_valid sspstrong uwtable
define void @_ZN15ExtArgTimestamp12defaultValueEv(ptr dead_on_unwind noalias writable sret(%class.QString) align 8 %0, ptr noundef align 8 dereferenceable_or_null(104) %1) unnamed_addr #0 align 2 personality ptr @__gxx_personality_v0 {
  %3 = alloca ptr, align 8
  %4 = alloca ptr, align 8
  %5 = alloca %class.QDateTime, align 8
  %6 = alloca ptr, align 8
  %7 = alloca i32, align 4
  store ptr %0, ptr %3, align 8
  store ptr %1, ptr %4, align 8
  call void @llvm.lifetime.start.p0(i64 8, ptr %5) #23
  call void @_ZN9QDateTime15currentDateTimeEv(ptr dead_on_unwind writable sret(%class.QDateTime) align 8 %5)
  %8 = invoke noundef i64 @_ZNK9QDateTime16toSecsSinceEpochEv(ptr noundef align 8 dereferenceable_or_null(8) %5)
          to label %9 unwind label %11

9:                                                ; preds = %2
  invoke void @_ZN7QString6numberExi(ptr dead_on_unwind writable sret(%class.QString) align 8 %0, i64 noundef %8, i32 noundef 10)
          to label %10 unwind label %11

10:                                               ; preds = %9
  call void @_ZN9QDateTimeD1Ev(ptr noundef align 8 dereferenceable_or_null(8) %5) #23
  call void @llvm.lifetime.end.p0(i64 8, ptr %5) #23
  ret void

11:                                               ; preds = %9, %2
  %12 = landingpad { ptr, i32 }
          cleanup
  %13 = extractvalue { ptr, i32 } %12, 0
  store ptr %13, ptr %6, align 8
  %14 = extractvalue { ptr, i32 } %12, 1
  store i32 %14, ptr %7, align 4
  call void @_ZN9QDateTimeD1Ev(ptr noundef align 8 dereferenceable_or_null(8) %5) #23
  call void @llvm.lifetime.end.p0(i64 8, ptr %5) #23
  br label %15

15:                                               ; preds = %11
  %16 = load ptr, ptr %6, align 8
  %17 = load i32, ptr %7, align 4
  %18 = insertvalue { ptr, i32 } poison, ptr %16, 0
  %19 = insertvalue { ptr, i32 } %18, i32 %17, 1
  resume { ptr, i32 } %19
}