; Function Attrs: mustprogress null_pointer_is_valid sspstrong uwtable
define void @_ZN15ExtArgTimestamp12defaultValueEv(ptr dead_on_unwind noalias writable sret(%class.QString) align 8 %0, ptr noundef readnone align 8 captures(none) dereferenceable_or_null(104) %1) unnamed_addr #0 align 2 personality ptr @__gxx_personality_v0 {
  %3 = alloca %class.QDateTime, align 8
  call void @llvm.lifetime.start.p0(i64 8, ptr nonnull %3) #26
  call void @_ZN9QDateTime15currentDateTimeEv(ptr dead_on_unwind nonnull writable sret(%class.QDateTime) align 8 %3)
  %4 = invoke noundef i64 @_ZNK9QDateTime16toSecsSinceEpochEv(ptr noundef nonnull align 8 dereferenceable_or_null(8) %3)
          to label %5 unwind label %7

5:                                                ; preds = %2
  invoke void @_ZN7QString6numberExi(ptr dead_on_unwind writable sret(%class.QString) align 8 %0, i64 noundef %4, i32 noundef 10)
          to label %6 unwind label %7

6:                                                ; preds = %5
  call void @_ZN9QDateTimeD1Ev(ptr noundef nonnull align 8 dereferenceable_or_null(8) %3) #26
  call void @llvm.lifetime.end.p0(i64 8, ptr nonnull %3) #26
  ret void

7:                                                ; preds = %5, %2
  %8 = landingpad { ptr, i32 }
          cleanup
  call void @_ZN9QDateTimeD1Ev(ptr noundef nonnull align 8 dereferenceable_or_null(8) %3) #26
  call void @llvm.lifetime.end.p0(i64 8, ptr nonnull %3) #26
  resume { ptr, i32 } %8
}